(dp1
S'sg_version_data'
p2
(dp3
S'code'
p4
S'v0.1.0'
p5
sS'description'
p6
NsS'tags'
p7
(lp8
sS'sg_payload'
p9
(dp10
S'name'
p11
S'tk-framework-aliastranslations_v0.1.0.zip'
p12
sS'url'
p13
S'https://tank.shotgunstudio.com/file_serve/attachment/22177'
p14
sS'content_type'
p15
S'application/zip'
p16
sS'type'
p17
S'Attachment'
p18
sS'id'
p19
I22177
sS'link_type'
p20
S'upload'
p21
ssS'sg_status_list'
p22
S'prod'
p23
sS'sg_detailed_release_notes'
p24
NsS'sg_documentation'
p25
NsS'type'
p26
S'CustomNonProjectEntity09'
p27
sS'id'
p28
I948
ssS'sg_bundle_data'
p29
(dp30
S'sg_status_list'
p31
S'depl'
p32
sS'type'
p33
S'CustomNonProjectEntity13'
p34
sS'id'
p35
I84
sS'sg_system_name'
p36
S'tk-framework-aliastranslations'
p37
sS'sg_deprecation_message'
p38
Nss.